target datalayout = "e-m:e-p270:32:32-p271:32:32-p272:64:64-i64:64-i128:128-f80:128-n8:16:32:64-S128"
target triple = "x86_64-pc-linux-gnu"

%"class.icu_77::MessagePattern" = type <{ %"class.icu_77::UObject", i32, [4 x i8], %"class.icu_77::UnicodeString", ptr, ptr, i32, [4 x i8], ptr, ptr, i32, i8, i8, i8, i8 }>
%"class.icu_77::UObject" = type { ptr }
%"class.icu_77::UnicodeString" = type { %"class.icu_77::Replaceable", %"union.icu_77::UnicodeString::StackBufferOrFields" }
%"class.icu_77::Replaceable" = type { %"class.icu_77::UObject" }
%"union.icu_77::UnicodeString::StackBufferOrFields" = type { %struct.anon.0, [32 x i8] }
%struct.anon.0 = type { i16, i32, i32, ptr }
%struct.anon = type { i16, [27 x i16] }
%struct.UParseError = type { i32, i32, [16 x i16], [16 x i16] }
%"class.icu_77::Char16Ptr" = type { ptr }

; Function Attrs: inlinehint mustprogress nounwind uwtable
define linkonce_odr noundef ptr @_ZNK6icu_779Char16Ptr3getEv(ptr noundef nonnull align 8 dereferenceable(8) %0) #1 comdat align 2 {
  %2 = alloca ptr, align 8
  store ptr %0, ptr %2, align 8, !tbaa !94
  %3 = load ptr, ptr %2, align 8
  %4 = getelementptr inbounds nuw %"class.icu_77::Char16Ptr", ptr %3, i32 0, i32 0
  %5 = load ptr, ptr %4, align 8, !tbaa !96
  ret ptr %5
}

; Function Attrs: inlinehint mustprogress nounwind uwtable
define linkonce_odr noundef ptr @_ZNK6icu_7713UnicodeString13getArrayStartEv(ptr noundef nonnull align 8 dereferenceable(64) %0) #1 comdat align 2 {
  %2 = alloca ptr, align 8
  store ptr %0, ptr %2, align 8, !tbaa !33
  %3 = load ptr, ptr %2, align 8
  %4 = getelementptr inbounds nuw %"class.icu_77::UnicodeString", ptr %3, i32 0, i32 1
  %5 = getelementptr inbounds nuw %struct.anon.0, ptr %4, i32 0, i32 0
  %6 = load i16, ptr %5, align 8, !tbaa !35
  %7 = sext i16 %6 to i32
  %8 = and i32 %7, 2
  %9 = icmp ne i32 %8, 0
  br i1 %9, label %10, label %14

10:                                               ; preds = %1
  %11 = getelementptr inbounds nuw %"class.icu_77::UnicodeString", ptr %3, i32 0, i32 1
  %12 = getelementptr inbounds nuw %struct.anon, ptr %11, i32 0, i32 1
  %13 = getelementptr inbounds [27 x i16], ptr %12, i64 0, i64 0
  br label %18

14:                                               ; preds = %1
  %15 = getelementptr inbounds nuw %"class.icu_77::UnicodeString", ptr %3, i32 0, i32 1
  %16 = getelementptr inbounds nuw %struct.anon.0, ptr %15, i32 0, i32 3
  %17 = load ptr, ptr %16, align 8, !tbaa !35
  br label %18

18:                                               ; preds = %14, %10
  %19 = phi ptr [ %13, %10 ], [ %17, %14 ]
  ret ptr %19
}

; Function Attrs: inlinehint mustprogress nounwind uwtable
define linkonce_odr noundef i32 @_ZNK6icu_7713UnicodeString14getShortLengthEv(ptr noundef nonnull align 8 dereferenceable(64) %0) #1 comdat align 2 {
  %2 = alloca ptr, align 8
  store ptr %0, ptr %2, align 8, !tbaa !33
  %3 = load ptr, ptr %2, align 8
  %4 = getelementptr inbounds nuw %"class.icu_77::UnicodeString", ptr %3, i32 0, i32 1
  %5 = getelementptr inbounds nuw %struct.anon.0, ptr %4, i32 0, i32 0
  %6 = load i16, ptr %5, align 8, !tbaa !35
  %7 = sext i16 %6 to i32
  %8 = ashr i32 %7, 5
  ret i32 %8
}

; Function Attrs: inlinehint mustprogress nounwind uwtable
define linkonce_odr noundef signext i8 @_ZNK6icu_7713UnicodeString14hasShortLengthEv(ptr noundef nonnull align 8 dereferenceable(64) %0) #1 comdat align 2 {
  %2 = alloca ptr, align 8
  store ptr %0, ptr %2, align 8, !tbaa !33
  %3 = load ptr, ptr %2, align 8
  %4 = getelementptr inbounds nuw %"class.icu_77::UnicodeString", ptr %3, i32 0, i32 1
  %5 = getelementptr inbounds nuw %struct.anon.0, ptr %4, i32 0, i32 0
  %6 = load i16, ptr %5, align 8, !tbaa !35
  %7 = sext i16 %6 to i32
  %8 = icmp sge i32 %7, 0
  %9 = zext i1 %8 to i8
  ret i8 %9
}

; Function Attrs: inlinehint mustprogress uwtable
define linkonce_odr noundef ptr @_ZNK6icu_779Char16PtrcvPDsEv(ptr noundef nonnull align 8 dereferenceable(8) %0) #2 comdat align 2 {
  %2 = alloca ptr, align 8
  store ptr %0, ptr %2, align 8, !tbaa !94
  %3 = load ptr, ptr %2, align 8
  %4 = call noundef ptr @_ZNK6icu_779Char16Ptr3getEv(ptr noundef nonnull align 8 dereferenceable(8) %3)
  ret ptr %4
}

; Function Attrs: inlinehint mustprogress uwtable
define linkonce_odr noundef zeroext i16 @_ZNK6icu_7713UnicodeString8doCharAtEi(ptr noundef nonnull align 8 dereferenceable(64) %0, i32 noundef %1) #2 comdat align 2 {
  %3 = alloca i16, align 2
  %4 = alloca ptr, align 8
  %5 = alloca i32, align 4
  store ptr %0, ptr %4, align 8, !tbaa !33
  store i32 %1, ptr %5, align 4, !tbaa !48
  %6 = load ptr, ptr %4, align 8
  %7 = load i32, ptr %5, align 4, !tbaa !48
  %8 = call noundef i32 @_ZNK6icu_7713UnicodeString6lengthEv(ptr noundef nonnull align 8 dereferenceable(64) %6)
  %9 = icmp ult i32 %7, %8
  br i1 %9, label %10, label %16

10:                                               ; preds = %2
  %11 = call noundef ptr @_ZNK6icu_7713UnicodeString13getArrayStartEv(ptr noundef nonnull align 8 dereferenceable(64) %6)
  %12 = load i32, ptr %5, align 4, !tbaa !48
  %13 = sext i32 %12 to i64
  %14 = getelementptr inbounds i16, ptr %11, i64 %13
  %15 = load i16, ptr %14, align 2, !tbaa !59
  store i16 %15, ptr %3, align 2
  br label %17

16:                                               ; preds = %2
  store i16 -1, ptr %3, align 2
  br label %17

17:                                               ; preds = %16, %10
  %18 = load i16, ptr %3, align 2
  ret i16 %18
}

; Function Attrs: inlinehint mustprogress uwtable
define linkonce_odr noundef i32 @_ZNK6icu_7713UnicodeString6lengthEv(ptr noundef nonnull align 8 dereferenceable(64) %0) #2 comdat align 2 {
  %2 = alloca ptr, align 8
  store ptr %0, ptr %2, align 8, !tbaa !33
  %3 = load ptr, ptr %2, align 8
  %4 = call noundef signext i8 @_ZNK6icu_7713UnicodeString14hasShortLengthEv(ptr noundef nonnull align 8 dereferenceable(64) %3)
  %5 = icmp ne i8 %4, 0
  br i1 %5, label %6, label %8

6:                                                ; preds = %1
  %7 = call noundef i32 @_ZNK6icu_7713UnicodeString14getShortLengthEv(ptr noundef nonnull align 8 dereferenceable(64) %3)
  br label %12

8:                                                ; preds = %1
  %9 = getelementptr inbounds nuw %"class.icu_77::UnicodeString", ptr %3, i32 0, i32 1
  %10 = getelementptr inbounds nuw %struct.anon.0, ptr %9, i32 0, i32 1
  %11 = load i32, ptr %10, align 4, !tbaa !35
  br label %12

12:                                               ; preds = %8, %6
  %13 = phi i32 [ %7, %6 ], [ %11, %8 ]
  ret i32 %13
}

; Function Attrs: inlinehint mustprogress nounwind uwtable
define linkonce_odr void @_ZN6icu_779Char16PtrD2Ev(ptr noundef nonnull align 8 dereferenceable(8) %0) unnamed_addr #1 comdat align 2 {
  %2 = alloca ptr, align 8
  store ptr %0, ptr %2, align 8, !tbaa !94
  %3 = load ptr, ptr %2, align 8
  %4 = getelementptr inbounds nuw %"class.icu_77::Char16Ptr", ptr %3, i32 0, i32 0
  %5 = load ptr, ptr %4, align 8, !tbaa !96
  call void asm sideeffect "", "rm,~{memory},~{dirflag},~{fpsr},~{flags}"(ptr %5) #12, !srcloc !98
  ret void
}

; Function Attrs: inlinehint mustprogress uwtable
define linkonce_odr void @_ZNK6icu_7713UnicodeString7extractEiiNS_9Char16PtrEi(ptr noundef nonnull align 8 dereferenceable(64) %0, i32 noundef %1, i32 noundef %2, ptr noundef %3, i32 noundef %4) #2 comdat align 2 {
  %6 = alloca ptr, align 8
  %7 = alloca i32, align 4
  %8 = alloca i32, align 4
  %9 = alloca ptr, align 8
  %10 = alloca i32, align 4
  store ptr %0, ptr %6, align 8, !tbaa !33
  store i32 %1, ptr %7, align 4, !tbaa !48
  store i32 %2, ptr %8, align 4, !tbaa !48
  store ptr %3, ptr %9, align 8, !tbaa !94
  store i32 %4, ptr %10, align 4, !tbaa !48
  %11 = load ptr, ptr %6, align 8
  %12 = load i32, ptr %7, align 4, !tbaa !48
  %13 = load i32, ptr %8, align 4, !tbaa !48
  %14 = call noundef ptr @_ZNK6icu_779Char16PtrcvPDsEv(ptr noundef nonnull align 8 dereferenceable(8) %3)
  %15 = load i32, ptr %10, align 4, !tbaa !48
  call void @_ZNK6icu_7713UnicodeString9doExtractEiiPDsi(ptr noundef nonnull align 8 dereferenceable(64) %11, i32 noundef %12, i32 noundef %13, ptr noundef %14, i32 noundef %15)
  ret void
}

; Function Attrs: inlinehint mustprogress nounwind uwtable
define linkonce_odr void @_ZN6icu_779Char16PtrC2EPDs(ptr noundef nonnull align 8 dereferenceable(8) %0, ptr noundef %1) unnamed_addr #1 comdat align 2 {
  %3 = alloca ptr, align 8
  %4 = alloca ptr, align 8
  store ptr %0, ptr %3, align 8, !tbaa !94
  store ptr %1, ptr %4, align 8, !tbaa !85
  %5 = load ptr, ptr %3, align 8
  %6 = getelementptr inbounds nuw %"class.icu_77::Char16Ptr", ptr %5, i32 0, i32 0
  %7 = load ptr, ptr %4, align 8, !tbaa !85
  store ptr %7, ptr %6, align 8, !tbaa !96
  ret void
}

; Function Attrs: inlinehint mustprogress uwtable
define linkonce_odr noundef zeroext i16 @_ZNK6icu_7713UnicodeStringixEi(ptr noundef nonnull align 8 dereferenceable(64) %0, i32 noundef %1) #2 comdat align 2 {
  %3 = alloca ptr, align 8
  %4 = alloca i32, align 4
  store ptr %0, ptr %3, align 8, !tbaa !33
  store i32 %1, ptr %4, align 4, !tbaa !48
  %5 = load ptr, ptr %3, align 8
  %6 = load i32, ptr %4, align 4, !tbaa !48
  %7 = call noundef zeroext i16 @_ZNK6icu_7713UnicodeString8doCharAtEi(ptr noundef nonnull align 8 dereferenceable(64) %5, i32 noundef %6)
  ret i16 %7
}

; Function Attrs: mustprogress uwtable
define void @_ZN6icu_7714MessagePattern13setParseErrorEP11UParseErrori(ptr noundef nonnull align 8 dereferenceable(127) %0, ptr noundef %1, i32 noundef %2) #0 align 2 personality ptr @__gxx_personality_v0 {
  %4 = alloca ptr, align 8
  %5 = alloca ptr, align 8
  %6 = alloca i32, align 4
  %7 = alloca i32, align 4
  %8 = alloca %"class.icu_77::Char16Ptr", align 8
  %9 = alloca ptr, align 8
  %10 = alloca i32, align 4
  %11 = alloca %"class.icu_77::Char16Ptr", align 8
  store ptr %0, ptr %4, align 8, !tbaa !3
  store ptr %1, ptr %5, align 8, !tbaa !39
  store i32 %2, ptr %6, align 4, !tbaa !48
  %12 = load ptr, ptr %4, align 8
  %13 = load ptr, ptr %5, align 8, !tbaa !39
  %14 = icmp eq ptr %13, null
  br i1 %14, label %15, label %16

15:                                               ; preds = %3
  br label %94

16:                                               ; preds = %3
  %17 = load i32, ptr %6, align 4, !tbaa !48
  %18 = load ptr, ptr %5, align 8, !tbaa !39
  %19 = getelementptr inbounds nuw %struct.UParseError, ptr %18, i32 0, i32 1
  store i32 %17, ptr %19, align 4, !tbaa !58
  call void @llvm.lifetime.start.p0(i64 4, ptr %7) #12
  %20 = load i32, ptr %6, align 4, !tbaa !48
  store i32 %20, ptr %7, align 4, !tbaa !48
  %21 = load i32, ptr %7, align 4, !tbaa !48
  %22 = icmp sge i32 %21, 16
  br i1 %22, label %23, label %39

23:                                               ; preds = %16
  store i32 15, ptr %7, align 4, !tbaa !48
  %24 = load i32, ptr %7, align 4, !tbaa !48
  %25 = icmp sgt i32 %24, 0
  br i1 %25, label %26, label %38

26:                                               ; preds = %23
  %27 = getelementptr inbounds nuw %"class.icu_77::MessagePattern", ptr %12, i32 0, i32 3
  %28 = load i32, ptr %6, align 4, !tbaa !48
  %29 = load i32, ptr %7, align 4, !tbaa !48
  %30 = sub nsw i32 %28, %29
  %31 = call noundef zeroext i16 @_ZNK6icu_7713UnicodeStringixEi(ptr noundef nonnull align 8 dereferenceable(64) %27, i32 noundef %30)
  %32 = zext i16 %31 to i32
  %33 = and i32 %32, -1024
  %34 = icmp eq i32 %33, 56320
  br i1 %34, label %35, label %38

35:                                               ; preds = %26
  %36 = load i32, ptr %7, align 4, !tbaa !48
  %37 = add nsw i32 %36, -1
  store i32 %37, ptr %7, align 4, !tbaa !48
  br label %38

38:                                               ; preds = %35, %26, %23
  br label %39

39:                                               ; preds = %38, %16
  %40 = getelementptr inbounds nuw %"class.icu_77::MessagePattern", ptr %12, i32 0, i32 3
  %41 = load i32, ptr %6, align 4, !tbaa !48
  %42 = load i32, ptr %7, align 4, !tbaa !48
  %43 = sub nsw i32 %41, %42
  %44 = load i32, ptr %7, align 4, !tbaa !48
  %45 = load ptr, ptr %5, align 8, !tbaa !39
  %46 = getelementptr inbounds nuw %struct.UParseError, ptr %45, i32 0, i32 2
  %47 = getelementptr inbounds [16 x i16], ptr %46, i64 0, i64 0
  call void @_ZN6icu_779Char16PtrC2EPDs(ptr noundef nonnull align 8 dereferenceable(8) %8, ptr noundef %47)
  invoke void @_ZNK6icu_7713UnicodeString7extractEiiNS_9Char16PtrEi(ptr noundef nonnull align 8 dereferenceable(64) %40, i32 noundef %43, i32 noundef %44, ptr noundef %8, i32 noundef 0)
          to label %48 unwind label %76

48:                                               ; preds = %39
  call void @_ZN6icu_779Char16PtrD2Ev(ptr noundef nonnull align 8 dereferenceable(8) %8) #12
  %49 = load ptr, ptr %5, align 8, !tbaa !39
  %50 = getelementptr inbounds nuw %struct.UParseError, ptr %49, i32 0, i32 2
  %51 = load i32, ptr %7, align 4, !tbaa !48
  %52 = sext i32 %51 to i64
  %53 = getelementptr inbounds [16 x i16], ptr %50, i64 0, i64 %52
  store i16 0, ptr %53, align 2, !tbaa !59
  %54 = getelementptr inbounds nuw %"class.icu_77::MessagePattern", ptr %12, i32 0, i32 3
  %55 = call noundef i32 @_ZNK6icu_7713UnicodeString6lengthEv(ptr noundef nonnull align 8 dereferenceable(64) %54)
  %56 = load i32, ptr %6, align 4, !tbaa !48
  %57 = sub nsw i32 %55, %56
  store i32 %57, ptr %7, align 4, !tbaa !48
  %58 = load i32, ptr %7, align 4, !tbaa !48
  %59 = icmp sge i32 %58, 16
  br i1 %59, label %60, label %81

60:                                               ; preds = %48
  store i32 15, ptr %7, align 4, !tbaa !48
  %61 = load i32, ptr %7, align 4, !tbaa !48
  %62 = icmp sgt i32 %61, 0
  br i1 %62, label %63, label %80

63:                                               ; preds = %60
  %64 = getelementptr inbounds nuw %"class.icu_77::MessagePattern", ptr %12, i32 0, i32 3
  %65 = load i32, ptr %6, align 4, !tbaa !48
  %66 = load i32, ptr %7, align 4, !tbaa !48
  %67 = add nsw i32 %65, %66
  %68 = sub nsw i32 %67, 1
  %69 = call noundef zeroext i16 @_ZNK6icu_7713UnicodeStringixEi(ptr noundef nonnull align 8 dereferenceable(64) %64, i32 noundef %68)
  %70 = zext i16 %69 to i32
  %71 = and i32 %70, -1024
  %72 = icmp eq i32 %71, 55296
  br i1 %72, label %73, label %80

73:                                               ; preds = %63
  %74 = load i32, ptr %7, align 4, !tbaa !48
  %75 = add nsw i32 %74, -1
  store i32 %75, ptr %7, align 4, !tbaa !48
  br label %80

76:                                               ; preds = %39
  %77 = landingpad { ptr, i32 }
          cleanup
  %78 = extractvalue { ptr, i32 } %77, 0
  store ptr %78, ptr %9, align 8
  %79 = extractvalue { ptr, i32 } %77, 1
  store i32 %79, ptr %10, align 4
  call void @_ZN6icu_779Char16PtrD2Ev(ptr noundef nonnull align 8 dereferenceable(8) %8) #12
  br label %99

80:                                               ; preds = %73, %63, %60
  br label %81

81:                                               ; preds = %80, %48
  %82 = getelementptr inbounds nuw %"class.icu_77::MessagePattern", ptr %12, i32 0, i32 3
  %83 = load i32, ptr %6, align 4, !tbaa !48
  %84 = load i32, ptr %7, align 4, !tbaa !48
  %85 = load ptr, ptr %5, align 8, !tbaa !39
  %86 = getelementptr inbounds nuw %struct.UParseError, ptr %85, i32 0, i32 3
  %87 = getelementptr inbounds [16 x i16], ptr %86, i64 0, i64 0
  call void @_ZN6icu_779Char16PtrC2EPDs(ptr noundef nonnull align 8 dereferenceable(8) %11, ptr noundef %87)
  invoke void @_ZNK6icu_7713UnicodeString7extractEiiNS_9Char16PtrEi(ptr noundef nonnull align 8 dereferenceable(64) %82, i32 noundef %83, i32 noundef %84, ptr noundef %11, i32 noundef 0)
          to label %88 unwind label %95

88:                                               ; preds = %81
  call void @_ZN6icu_779Char16PtrD2Ev(ptr noundef nonnull align 8 dereferenceable(8) %11) #12
  %89 = load ptr, ptr %5, align 8, !tbaa !39
  %90 = getelementptr inbounds nuw %struct.UParseError, ptr %89, i32 0, i32 3
  %91 = load i32, ptr %7, align 4, !tbaa !48
  %92 = sext i32 %91 to i64
  %93 = getelementptr inbounds [16 x i16], ptr %90, i64 0, i64 %92
  store i16 0, ptr %93, align 2, !tbaa !59
  call void @llvm.lifetime.end.p0(i64 4, ptr %7) #12
  br label %94

94:                                               ; preds = %88, %15
  ret void

95:                                               ; preds = %81
  %96 = landingpad { ptr, i32 }
          cleanup
  %97 = extractvalue { ptr, i32 } %96, 0
  store ptr %97, ptr %9, align 8
  %98 = extractvalue { ptr, i32 } %96, 1
  store i32 %98, ptr %10, align 4
  call void @_ZN6icu_779Char16PtrD2Ev(ptr noundef nonnull align 8 dereferenceable(8) %11) #12
  br label %99

99:                                               ; preds = %95, %76
  call void @llvm.lifetime.end.p0(i64 4, ptr %7) #12
  br label %100

100:                                              ; preds = %99
  %101 = load ptr, ptr %9, align 8
  %102 = load i32, ptr %10, align 4
  %103 = insertvalue { ptr, i32 } poison, ptr %101, 0
  %104 = insertvalue { ptr, i32 } %103, i32 %102, 1
  resume { ptr, i32 } %104
}