; Function Attrs: mustprogress uwtable
define void @_ZN6icu_7714MessagePattern13setParseErrorEP11UParseErrori(ptr noundef nonnull align 8 dereferenceable(127) %0, ptr noundef %1, i32 noundef %2) local_unnamed_addr #2 align 2 personality ptr @__gxx_personality_v0 {
  %4 = icmp eq ptr %1, null
  br i1 %4, label %66, label %5

5:                                                ; preds = %3
  %6 = getelementptr inbounds nuw i8, ptr %1, i64 4
  store i32 %2, ptr %6, align 4, !tbaa !29
  %7 = icmp sgt i32 %2, 15
  br i1 %7, label %8, label %_ZNK6icu_7713UnicodeStringixEi.exit

8:                                                ; preds = %5
  %9 = add nsw i32 %2, -15
  %10 = getelementptr inbounds nuw i8, ptr %0, i64 24
  %11 = load i16, ptr %10, align 8, !tbaa !19
  %12 = icmp slt i16 %11, 0
  %13 = ashr i16 %11, 5
  %14 = sext i16 %13 to i32
  %15 = getelementptr inbounds nuw i8, ptr %0, i64 28
  %16 = load i32, ptr %15, align 4
  %17 = select i1 %12, i32 %16, i32 %14
  %18 = icmp ult i32 %9, %17
  br i1 %18, label %19, label %_ZNK6icu_7713UnicodeStringixEi.exit

19:                                               ; preds = %8
  %20 = and i16 %11, 2
  %.not.i.i.i = icmp eq i16 %20, 0
  %21 = getelementptr inbounds nuw i8, ptr %0, i64 26
  %22 = getelementptr inbounds nuw i8, ptr %0, i64 40
  %23 = load ptr, ptr %22, align 8
  %24 = select i1 %.not.i.i.i, ptr %23, ptr %21
  %25 = zext nneg i32 %9 to i64
  %26 = getelementptr inbounds nuw i16, ptr %24, i64 %25
  %27 = load i16, ptr %26, align 2, !tbaa !30
  %28 = and i16 %27, -1024
  %29 = icmp eq i16 %28, -9216
  %30 = select i1 %29, i32 14, i32 15
  br label %_ZNK6icu_7713UnicodeStringixEi.exit

_ZNK6icu_7713UnicodeStringixEi.exit:              ; preds = %19, %8, %5
  %.029 = phi i32 [ %2, %5 ], [ %30, %19 ], [ 15, %8 ]
  %31 = getelementptr inbounds nuw i8, ptr %0, i64 16
  %32 = sub nsw i32 %2, %.029
  %33 = getelementptr inbounds nuw i8, ptr %1, i64 8
  invoke void @_ZNK6icu_7713UnicodeString9doExtractEiiPDsi(ptr noundef nonnull align 8 dereferenceable(64) %31, i32 noundef %32, i32 noundef %.029, ptr noundef nonnull %33, i32 noundef 0)
          to label %_ZNK6icu_7713UnicodeString7extractEiiNS_9Char16PtrEi.exit unwind label %61

_ZNK6icu_7713UnicodeString7extractEiiNS_9Char16PtrEi.exit: ; preds = %_ZNK6icu_7713UnicodeStringixEi.exit
  tail call void asm sideeffect "", "rm,~{memory},~{dirflag},~{fpsr},~{flags}"(ptr nonnull %33) #18, !srcloc !55
  %34 = sext i32 %.029 to i64
  %35 = getelementptr inbounds [16 x i16], ptr %33, i64 0, i64 %34
  store i16 0, ptr %35, align 2, !tbaa !30
  %36 = getelementptr inbounds nuw i8, ptr %0, i64 24
  %37 = load i16, ptr %36, align 8, !tbaa !19
  %38 = icmp slt i16 %37, 0
  %39 = ashr i16 %37, 5
  %40 = sext i16 %39 to i32
  %41 = getelementptr inbounds nuw i8, ptr %0, i64 28
  %42 = load i32, ptr %41, align 4
  %43 = select i1 %38, i32 %42, i32 %40
  %44 = sub nsw i32 %43, %2
  %45 = icmp sgt i32 %44, 15
  br i1 %45, label %46, label %_ZNK6icu_7713UnicodeStringixEi.exit38

46:                                               ; preds = %_ZNK6icu_7713UnicodeString7extractEiiNS_9Char16PtrEi.exit
  %47 = add nsw i32 %2, 14
  %48 = icmp ult i32 %47, %43
  br i1 %48, label %49, label %_ZNK6icu_7713UnicodeStringixEi.exit38

49:                                               ; preds = %46
  %50 = and i16 %37, 2
  %.not.i.i.i37 = icmp eq i16 %50, 0
  %51 = getelementptr inbounds nuw i8, ptr %0, i64 26
  %52 = getelementptr inbounds nuw i8, ptr %0, i64 40
  %53 = load ptr, ptr %52, align 8
  %54 = select i1 %.not.i.i.i37, ptr %53, ptr %51
  %55 = sext i32 %47 to i64
  %56 = getelementptr inbounds i16, ptr %54, i64 %55
  %57 = load i16, ptr %56, align 2, !tbaa !30
  %58 = and i16 %57, -1024
  %59 = icmp eq i16 %58, -10240
  %60 = select i1 %59, i32 14, i32 15
  br label %_ZNK6icu_7713UnicodeStringixEi.exit38

61:                                               ; preds = %_ZNK6icu_7713UnicodeStringixEi.exit
  %62 = landingpad { ptr, i32 }
          cleanup
  tail call void asm sideeffect "", "rm,~{memory},~{dirflag},~{fpsr},~{flags}"(ptr nonnull %33) #18, !srcloc !55
  br label %69

_ZNK6icu_7713UnicodeStringixEi.exit38:            ; preds = %49, %46, %_ZNK6icu_7713UnicodeString7extractEiiNS_9Char16PtrEi.exit
  %.1 = phi i32 [ %44, %_ZNK6icu_7713UnicodeString7extractEiiNS_9Char16PtrEi.exit ], [ %60, %49 ], [ 15, %46 ]
  %63 = getelementptr inbounds nuw i8, ptr %1, i64 40
  invoke void @_ZNK6icu_7713UnicodeString9doExtractEiiPDsi(ptr noundef nonnull align 8 dereferenceable(64) %31, i32 noundef %2, i32 noundef %.1, ptr noundef nonnull %63, i32 noundef 0)
          to label %_ZNK6icu_7713UnicodeString7extractEiiNS_9Char16PtrEi.exit39 unwind label %67

_ZNK6icu_7713UnicodeString7extractEiiNS_9Char16PtrEi.exit39: ; preds = %_ZNK6icu_7713UnicodeStringixEi.exit38
  tail call void asm sideeffect "", "rm,~{memory},~{dirflag},~{fpsr},~{flags}"(ptr nonnull %63) #18, !srcloc !55
  %64 = sext i32 %.1 to i64
  %65 = getelementptr inbounds [16 x i16], ptr %63, i64 0, i64 %64
  store i16 0, ptr %65, align 2, !tbaa !30
  br label %66

66:                                               ; preds = %3, %_ZNK6icu_7713UnicodeString7extractEiiNS_9Char16PtrEi.exit39
  ret void

67:                                               ; preds = %_ZNK6icu_7713UnicodeStringixEi.exit38
  %68 = landingpad { ptr, i32 }
          cleanup
  tail call void asm sideeffect "", "rm,~{memory},~{dirflag},~{fpsr},~{flags}"(ptr nonnull %63) #18, !srcloc !55
  br label %69

69:                                               ; preds = %67, %61
  %.pn = phi { ptr, i32 } [ %68, %67 ], [ %62, %61 ]
  resume { ptr, i32 } %.pn
}